target datalayout = "e-m:e-p270:32:32-p271:32:32-p272:64:64-i64:64-i128:128-f80:128-n8:16:32:64-S128"
target triple = "x86_64-pc-linux-gnu"

%"struct.Luau::CodeGen::X64::RegisterX64" = type { i8 }
%"struct.Luau::CodeGen::X64::OperandX64" = type { i8, %"struct.Luau::CodeGen::X64::RegisterX64", %"struct.Luau::CodeGen::X64::RegisterX64", i8, i32 }
%"class.Luau::CodeGen::X64::IrCallWrapperX64" = type { ptr, ptr, i32, %"struct.std::array", i32, i32, i32, %"struct.Luau::CodeGen::X64::OperandX64", %"struct.std::array.0", %"struct.std::array.0" }
%"struct.std::array" = type { [6 x %"struct.Luau::CodeGen::X64::CallArgument"] }
%"struct.Luau::CodeGen::X64::CallArgument" = type <{ i8, [3 x i8], %"struct.Luau::CodeGen::X64::OperandX64", %"struct.Luau::CodeGen::IrOp", %"struct.Luau::CodeGen::X64::OperandX64", i8, [3 x i8] }>
%"struct.Luau::CodeGen::IrOp" = type { i32 }
%"struct.std::array.0" = type { [16 x i8] }

@_ZN4Luau7CodeGen3X64L5noregE = internal constant %"struct.Luau::CodeGen::X64::RegisterX64" { i8 -128 }, align 1

; Function Attrs: mustprogress nounwind uwtable
define linkonce_odr dso_local void @_ZN4Luau7CodeGen3X6410OperandX64C2ENS1_11RegisterX64E(ptr noundef nonnull align 4 dereferenceable(8) %0, i8 %1) unnamed_addr #3 comdat align 2 {
  %3 = alloca %"struct.Luau::CodeGen::X64::RegisterX64", align 1
  %4 = alloca ptr, align 8
  %5 = getelementptr inbounds nuw %"struct.Luau::CodeGen::X64::RegisterX64", ptr %3, i32 0, i32 0
  store i8 %1, ptr %5, align 1
  store ptr %0, ptr %4, align 8, !tbaa !30
  %6 = load ptr, ptr %4, align 8
  %7 = getelementptr inbounds nuw %"struct.Luau::CodeGen::X64::OperandX64", ptr %6, i32 0, i32 0
  store i8 0, ptr %7, align 4, !tbaa !32
  %8 = getelementptr inbounds nuw %"struct.Luau::CodeGen::X64::OperandX64", ptr %6, i32 0, i32 1
  call void @llvm.memcpy.p0.p0.i64(ptr align 1 %8, ptr align 1 @_ZN4Luau7CodeGen3X64L5noregE, i64 1, i1 false), !tbaa.struct !26
  %9 = getelementptr inbounds nuw %"struct.Luau::CodeGen::X64::OperandX64", ptr %6, i32 0, i32 2
  call void @llvm.memcpy.p0.p0.i64(ptr align 2 %9, ptr align 1 %3, i64 1, i1 false), !tbaa.struct !26
  %10 = getelementptr inbounds nuw %"struct.Luau::CodeGen::X64::OperandX64", ptr %6, i32 0, i32 3
  %11 = load i8, ptr %10, align 1
  %12 = and i8 %11, -16
  %13 = or i8 %12, 0
  store i8 %13, ptr %10, align 1
  %14 = getelementptr inbounds nuw %"struct.Luau::CodeGen::X64::OperandX64", ptr %6, i32 0, i32 3
  %15 = load i8, ptr %14, align 1
  %16 = and i8 %15, 15
  %17 = or i8 %16, 16
  store i8 %17, ptr %14, align 1
  %18 = getelementptr inbounds nuw %"struct.Luau::CodeGen::X64::OperandX64", ptr %6, i32 0, i32 4
  store i32 0, ptr %18, align 4, !tbaa !33
  ret void
}

; Function Attrs: mustprogress uwtable
define dso_local void @_ZN4Luau7CodeGen3X6416IrCallWrapperX6412moveToTargetERNS1_12CallArgumentE(ptr noundef nonnull align 8 dereferenceable(240) %0, ptr noundef nonnull align 4 dereferenceable(25) %1) #0 align 2 {
  %3 = alloca ptr, align 8
  %4 = alloca ptr, align 8
  %5 = alloca %"struct.Luau::CodeGen::X64::RegisterX64", align 1
  %6 = alloca %"struct.Luau::CodeGen::X64::OperandX64", align 4
  %7 = alloca %"struct.Luau::CodeGen::X64::OperandX64", align 4
  %8 = alloca %"struct.Luau::CodeGen::X64::RegisterX64", align 1
  %9 = alloca %"struct.Luau::CodeGen::X64::OperandX64", align 4
  %10 = alloca %"struct.Luau::CodeGen::X64::RegisterX64", align 1
  %11 = alloca %"struct.Luau::CodeGen::X64::OperandX64", align 4
  %12 = alloca %"struct.Luau::CodeGen::X64::OperandX64", align 4
  %13 = alloca %"struct.Luau::CodeGen::X64::RegisterX64", align 1
  %14 = alloca %"struct.Luau::CodeGen::X64::OperandX64", align 4
  %15 = alloca %"struct.Luau::CodeGen::X64::OperandX64", align 4
  %16 = alloca %"struct.Luau::CodeGen::X64::OperandX64", align 4
  %17 = alloca %"struct.Luau::CodeGen::X64::OperandX64", align 4
  %18 = alloca %"struct.Luau::CodeGen::X64::OperandX64", align 4
  %19 = alloca %"struct.Luau::CodeGen::X64::OperandX64", align 4
  %20 = alloca %"struct.Luau::CodeGen::X64::OperandX64", align 4
  %21 = alloca %"struct.Luau::CodeGen::X64::OperandX64", align 4
  %22 = alloca %"struct.Luau::CodeGen::X64::OperandX64", align 4
  %23 = alloca %"struct.Luau::CodeGen::X64::OperandX64", align 4
  store ptr %0, ptr %3, align 8, !tbaa !4
  store ptr %1, ptr %4, align 8, !tbaa !39
  %24 = load ptr, ptr %3, align 8
  %25 = load ptr, ptr %4, align 8, !tbaa !39
  %26 = getelementptr inbounds nuw %"struct.Luau::CodeGen::X64::CallArgument", ptr %25, i32 0, i32 2
  %27 = getelementptr inbounds nuw %"struct.Luau::CodeGen::X64::OperandX64", ptr %26, i32 0, i32 0
  %28 = load i8, ptr %27, align 4, !tbaa !106
  %29 = icmp eq i8 %28, 0
  br i1 %29, label %30, label %59

30:                                               ; preds = %2
  call void @llvm.lifetime.start.p0(i64 1, ptr %5) #10
  %31 = load ptr, ptr %4, align 8, !tbaa !39
  %32 = getelementptr inbounds nuw %"struct.Luau::CodeGen::X64::CallArgument", ptr %31, i32 0, i32 2
  %33 = getelementptr inbounds nuw %"struct.Luau::CodeGen::X64::OperandX64", ptr %32, i32 0, i32 2
  call void @llvm.memcpy.p0.p0.i64(ptr align 1 %5, ptr align 2 %33, i64 1, i1 false), !tbaa.struct !26
  %34 = load i8, ptr %5, align 1
  %35 = and i8 %34, 7
  %36 = icmp eq i8 %35, 5
  br i1 %36, label %37, label %49

37:                                               ; preds = %30
  %38 = getelementptr inbounds nuw %"class.Luau::CodeGen::X64::IrCallWrapperX64", ptr %24, i32 0, i32 1
  %39 = load ptr, ptr %38, align 8, !tbaa !52
  %40 = load ptr, ptr %4, align 8, !tbaa !39
  %41 = getelementptr inbounds nuw %"struct.Luau::CodeGen::X64::CallArgument", ptr %40, i32 0, i32 4
  call void @llvm.memcpy.p0.p0.i64(ptr align 4 %6, ptr align 4 %41, i64 8, i1 false), !tbaa.struct !46
  call void @llvm.memcpy.p0.p0.i64(ptr align 1 %8, ptr align 1 %5, i64 1, i1 false), !tbaa.struct !26
  %42 = getelementptr inbounds nuw %"struct.Luau::CodeGen::X64::RegisterX64", ptr %8, i32 0, i32 0
  %43 = load i8, ptr %42, align 1
  call void @_ZN4Luau7CodeGen3X6410OperandX64C2ENS1_11RegisterX64E(ptr noundef nonnull align 4 dereferenceable(8) %7, i8 %43)
  call void @llvm.memcpy.p0.p0.i64(ptr align 1 %10, ptr align 1 %5, i64 1, i1 false), !tbaa.struct !26
  %44 = getelementptr inbounds nuw %"struct.Luau::CodeGen::X64::RegisterX64", ptr %10, i32 0, i32 0
  %45 = load i8, ptr %44, align 1
  call void @_ZN4Luau7CodeGen3X6410OperandX64C2ENS1_11RegisterX64E(ptr noundef nonnull align 4 dereferenceable(8) %9, i8 %45)
  %46 = load i64, ptr %6, align 4
  %47 = load i64, ptr %7, align 4
  %48 = load i64, ptr %9, align 4
  call void @_ZN4Luau7CodeGen3X6418AssemblyBuilderX646vmovsdENS1_10OperandX64ES3_S3_(ptr noundef nonnull align 8 dereferenceable(252) %39, i64 %46, i64 %47, i64 %48)
  br label %58

49:                                               ; preds = %30
  %50 = getelementptr inbounds nuw %"class.Luau::CodeGen::X64::IrCallWrapperX64", ptr %24, i32 0, i32 1
  %51 = load ptr, ptr %50, align 8, !tbaa !52
  %52 = load ptr, ptr %4, align 8, !tbaa !39
  %53 = getelementptr inbounds nuw %"struct.Luau::CodeGen::X64::CallArgument", ptr %52, i32 0, i32 4
  call void @llvm.memcpy.p0.p0.i64(ptr align 4 %11, ptr align 4 %53, i64 8, i1 false), !tbaa.struct !46
  call void @llvm.memcpy.p0.p0.i64(ptr align 1 %13, ptr align 1 %5, i64 1, i1 false), !tbaa.struct !26
  %54 = getelementptr inbounds nuw %"struct.Luau::CodeGen::X64::RegisterX64", ptr %13, i32 0, i32 0
  %55 = load i8, ptr %54, align 1
  call void @_ZN4Luau7CodeGen3X6410OperandX64C2ENS1_11RegisterX64E(ptr noundef nonnull align 4 dereferenceable(8) %12, i8 %55)
  %56 = load i64, ptr %11, align 4
  %57 = load i64, ptr %12, align 4
  call void @_ZN4Luau7CodeGen3X6418AssemblyBuilderX643movENS1_10OperandX64ES3_(ptr noundef nonnull align 8 dereferenceable(252) %51, i64 %56, i64 %57)
  br label %58

58:                                               ; preds = %49, %37
  call void @llvm.lifetime.end.p0(i64 1, ptr %5) #10
  br label %142

59:                                               ; preds = %2
  %60 = load ptr, ptr %4, align 8, !tbaa !39
  %61 = getelementptr inbounds nuw %"struct.Luau::CodeGen::X64::CallArgument", ptr %60, i32 0, i32 2
  %62 = getelementptr inbounds nuw %"struct.Luau::CodeGen::X64::OperandX64", ptr %61, i32 0, i32 0
  %63 = load i8, ptr %62, align 4, !tbaa !106
  %64 = icmp eq i8 %63, 2
  br i1 %64, label %65, label %74

65:                                               ; preds = %59
  %66 = getelementptr inbounds nuw %"class.Luau::CodeGen::X64::IrCallWrapperX64", ptr %24, i32 0, i32 1
  %67 = load ptr, ptr %66, align 8, !tbaa !52
  %68 = load ptr, ptr %4, align 8, !tbaa !39
  %69 = getelementptr inbounds nuw %"struct.Luau::CodeGen::X64::CallArgument", ptr %68, i32 0, i32 4
  call void @llvm.memcpy.p0.p0.i64(ptr align 4 %14, ptr align 4 %69, i64 8, i1 false), !tbaa.struct !46
  %70 = load ptr, ptr %4, align 8, !tbaa !39
  %71 = getelementptr inbounds nuw %"struct.Luau::CodeGen::X64::CallArgument", ptr %70, i32 0, i32 2
  call void @llvm.memcpy.p0.p0.i64(ptr align 4 %15, ptr align 4 %71, i64 8, i1 false), !tbaa.struct !46
  %72 = load i64, ptr %14, align 4
  %73 = load i64, ptr %15, align 4
  call void @_ZN4Luau7CodeGen3X6418AssemblyBuilderX643movENS1_10OperandX64ES3_(ptr noundef nonnull align 8 dereferenceable(252) %67, i64 %72, i64 %73)
  br label %141

74:                                               ; preds = %59
  %75 = load ptr, ptr %4, align 8, !tbaa !39
  %76 = getelementptr inbounds nuw %"struct.Luau::CodeGen::X64::CallArgument", ptr %75, i32 0, i32 2
  %77 = getelementptr inbounds nuw %"struct.Luau::CodeGen::X64::OperandX64", ptr %76, i32 0, i32 3
  %78 = load i8, ptr %77, align 1
  %79 = and i8 %78, 15
  %80 = icmp eq i8 %79, 0
  br i1 %80, label %81, label %90

81:                                               ; preds = %74
  %82 = getelementptr inbounds nuw %"class.Luau::CodeGen::X64::IrCallWrapperX64", ptr %24, i32 0, i32 1
  %83 = load ptr, ptr %82, align 8, !tbaa !52
  %84 = load ptr, ptr %4, align 8, !tbaa !39
  %85 = getelementptr inbounds nuw %"struct.Luau::CodeGen::X64::CallArgument", ptr %84, i32 0, i32 4
  call void @llvm.memcpy.p0.p0.i64(ptr align 4 %16, ptr align 4 %85, i64 8, i1 false), !tbaa.struct !46
  %86 = load ptr, ptr %4, align 8, !tbaa !39
  %87 = getelementptr inbounds nuw %"struct.Luau::CodeGen::X64::CallArgument", ptr %86, i32 0, i32 2
  call void @llvm.memcpy.p0.p0.i64(ptr align 4 %17, ptr align 4 %87, i64 8, i1 false), !tbaa.struct !46
  %88 = load i64, ptr %16, align 4
  %89 = load i64, ptr %17, align 4
  call void @_ZN4Luau7CodeGen3X6418AssemblyBuilderX643leaENS1_10OperandX64ES3_(ptr noundef nonnull align 8 dereferenceable(252) %83, i64 %88, i64 %89)
  br label %140

90:                                               ; preds = %74
  %91 = load ptr, ptr %4, align 8, !tbaa !39
  %92 = getelementptr inbounds nuw %"struct.Luau::CodeGen::X64::CallArgument", ptr %91, i32 0, i32 4
  %93 = getelementptr inbounds nuw %"struct.Luau::CodeGen::X64::OperandX64", ptr %92, i32 0, i32 2
  %94 = load i8, ptr %93, align 2
  %95 = and i8 %94, 7
  %96 = icmp eq i8 %95, 5
  br i1 %96, label %97, label %113

97:                                               ; preds = %90
  %98 = load ptr, ptr %4, align 8, !tbaa !39
  %99 = getelementptr inbounds nuw %"struct.Luau::CodeGen::X64::CallArgument", ptr %98, i32 0, i32 2
  %100 = getelementptr inbounds nuw %"struct.Luau::CodeGen::X64::OperandX64", ptr %99, i32 0, i32 3
  %101 = load i8, ptr %100, align 1
  %102 = and i8 %101, 15
  %103 = icmp eq i8 %102, 5
  br i1 %103, label %104, label %113

104:                                              ; preds = %97
  %105 = getelementptr inbounds nuw %"class.Luau::CodeGen::X64::IrCallWrapperX64", ptr %24, i32 0, i32 1
  %106 = load ptr, ptr %105, align 8, !tbaa !52
  %107 = load ptr, ptr %4, align 8, !tbaa !39
  %108 = getelementptr inbounds nuw %"struct.Luau::CodeGen::X64::CallArgument", ptr %107, i32 0, i32 4
  call void @llvm.memcpy.p0.p0.i64(ptr align 4 %18, ptr align 4 %108, i64 8, i1 false), !tbaa.struct !46
  %109 = load ptr, ptr %4, align 8, !tbaa !39
  %110 = getelementptr inbounds nuw %"struct.Luau::CodeGen::X64::CallArgument", ptr %109, i32 0, i32 2
  call void @llvm.memcpy.p0.p0.i64(ptr align 4 %19, ptr align 4 %110, i64 8, i1 false), !tbaa.struct !46
  %111 = load i64, ptr %18, align 4
  %112 = load i64, ptr %19, align 4
  call void @_ZN4Luau7CodeGen3X6418AssemblyBuilderX647vmovupsENS1_10OperandX64ES3_(ptr noundef nonnull align 8 dereferenceable(252) %106, i64 %111, i64 %112)
  br label %139

113:                                              ; preds = %97, %90
  %114 = load ptr, ptr %4, align 8, !tbaa !39
  %115 = getelementptr inbounds nuw %"struct.Luau::CodeGen::X64::CallArgument", ptr %114, i32 0, i32 4
  %116 = getelementptr inbounds nuw %"struct.Luau::CodeGen::X64::OperandX64", ptr %115, i32 0, i32 2
  %117 = load i8, ptr %116, align 2
  %118 = and i8 %117, 7
  %119 = icmp eq i8 %118, 5
  br i1 %119, label %120, label %129

120:                                              ; preds = %113
  %121 = getelementptr inbounds nuw %"class.Luau::CodeGen::X64::IrCallWrapperX64", ptr %24, i32 0, i32 1
  %122 = load ptr, ptr %121, align 8, !tbaa !52
  %123 = load ptr, ptr %4, align 8, !tbaa !39
  %124 = getelementptr inbounds nuw %"struct.Luau::CodeGen::X64::CallArgument", ptr %123, i32 0, i32 4
  call void @llvm.memcpy.p0.p0.i64(ptr align 4 %20, ptr align 4 %124, i64 8, i1 false), !tbaa.struct !46
  %125 = load ptr, ptr %4, align 8, !tbaa !39
  %126 = getelementptr inbounds nuw %"struct.Luau::CodeGen::X64::CallArgument", ptr %125, i32 0, i32 2
  call void @llvm.memcpy.p0.p0.i64(ptr align 4 %21, ptr align 4 %126, i64 8, i1 false), !tbaa.struct !46
  %127 = load i64, ptr %20, align 4
  %128 = load i64, ptr %21, align 4
  call void @_ZN4Luau7CodeGen3X6418AssemblyBuilderX646vmovsdENS1_10OperandX64ES3_(ptr noundef nonnull align 8 dereferenceable(252) %122, i64 %127, i64 %128)
  br label %138

129:                                              ; preds = %113
  %130 = getelementptr inbounds nuw %"class.Luau::CodeGen::X64::IrCallWrapperX64", ptr %24, i32 0, i32 1
  %131 = load ptr, ptr %130, align 8, !tbaa !52
  %132 = load ptr, ptr %4, align 8, !tbaa !39
  %133 = getelementptr inbounds nuw %"struct.Luau::CodeGen::X64::CallArgument", ptr %132, i32 0, i32 4
  call void @llvm.memcpy.p0.p0.i64(ptr align 4 %22, ptr align 4 %133, i64 8, i1 false), !tbaa.struct !46
  %134 = load ptr, ptr %4, align 8, !tbaa !39
  %135 = getelementptr inbounds nuw %"struct.Luau::CodeGen::X64::CallArgument", ptr %134, i32 0, i32 2
  call void @llvm.memcpy.p0.p0.i64(ptr align 4 %23, ptr align 4 %135, i64 8, i1 false), !tbaa.struct !46
  %136 = load i64, ptr %22, align 4
  %137 = load i64, ptr %23, align 4
  call void @_ZN4Luau7CodeGen3X6418AssemblyBuilderX643movENS1_10OperandX64ES3_(ptr noundef nonnull align 8 dereferenceable(252) %131, i64 %136, i64 %137)
  br label %138

138:                                              ; preds = %129, %120
  br label %139

139:                                              ; preds = %138, %104
  br label %140

140:                                              ; preds = %139, %81
  br label %141

141:                                              ; preds = %140, %65
  br label %142

142:                                              ; preds = %141, %58
  ret void
}