; Function Attrs: mustprogress uwtable
define dso_local void @_ZN4Luau7CodeGen3X6416IrCallWrapperX6412moveToTargetERNS1_12CallArgumentE(ptr noundef nonnull readonly align 8 captures(none) dereferenceable(240) %0, ptr noundef nonnull readonly align 4 captures(none) dereferenceable(25) %1) local_unnamed_addr #4 align 2 {
  %3 = getelementptr inbounds nuw i8, ptr %1, i64 4
  %4 = load i8, ptr %3, align 4, !tbaa !84
  switch i8 %4, label %18 [
    i8 0, label %5
    i8 2, label %14
  ]

5:                                                ; preds = %2
  %6 = getelementptr inbounds nuw i8, ptr %1, i64 6
  %.sroa.015.0.copyload = load i8, ptr %6, align 2, !tbaa !26
  %7 = and i8 %.sroa.015.0.copyload, 7
  %8 = icmp eq i8 %7, 5
  %9 = getelementptr inbounds nuw i8, ptr %0, i64 8
  %10 = load ptr, ptr %9, align 8, !tbaa !34
  %11 = getelementptr inbounds nuw i8, ptr %1, i64 16
  %.sroa.014.0.copyload = load i64, ptr %11, align 4
  %.sroa.346.0.insert.ext = zext i8 %.sroa.015.0.copyload to i64
  %.sroa.346.0.insert.shift = shl nuw nsw i64 %.sroa.346.0.insert.ext, 16
  %.sroa.245.0.insert.insert = or disjoint i64 %.sroa.346.0.insert.shift, 268468224
  br i1 %8, label %12, label %13

12:                                               ; preds = %5
  tail call void @_ZN4Luau7CodeGen3X6418AssemblyBuilderX646vmovsdENS1_10OperandX64ES3_S3_(ptr noundef nonnull align 8 dereferenceable(252) %10, i64 %.sroa.014.0.copyload, i64 %.sroa.245.0.insert.insert, i64 %.sroa.245.0.insert.insert)
  br label %40

13:                                               ; preds = %5
  tail call void @_ZN4Luau7CodeGen3X6418AssemblyBuilderX643movENS1_10OperandX64ES3_(ptr noundef nonnull align 8 dereferenceable(252) %10, i64 %.sroa.014.0.copyload, i64 %.sroa.245.0.insert.insert)
  br label %40

14:                                               ; preds = %2
  %15 = getelementptr inbounds nuw i8, ptr %0, i64 8
  %16 = load ptr, ptr %15, align 8, !tbaa !34
  %17 = getelementptr inbounds nuw i8, ptr %1, i64 16
  %.sroa.09.0.copyload = load i64, ptr %17, align 4
  %.sroa.08.0.copyload = load i64, ptr %3, align 4
  tail call void @_ZN4Luau7CodeGen3X6418AssemblyBuilderX643movENS1_10OperandX64ES3_(ptr noundef nonnull align 8 dereferenceable(252) %16, i64 %.sroa.09.0.copyload, i64 %.sroa.08.0.copyload)
  br label %40

18:                                               ; preds = %2
  %19 = getelementptr inbounds nuw i8, ptr %1, i64 7
  %20 = load i8, ptr %19, align 1
  %21 = and i8 %20, 15
  %22 = icmp eq i8 %21, 0
  br i1 %22, label %23, label %27

23:                                               ; preds = %18
  %24 = getelementptr inbounds nuw i8, ptr %0, i64 8
  %25 = load ptr, ptr %24, align 8, !tbaa !34
  %26 = getelementptr inbounds nuw i8, ptr %1, i64 16
  %.sroa.07.0.copyload = load i64, ptr %26, align 4
  %.sroa.06.0.copyload = load i64, ptr %3, align 4
  tail call void @_ZN4Luau7CodeGen3X6418AssemblyBuilderX643leaENS1_10OperandX64ES3_(ptr noundef nonnull align 8 dereferenceable(252) %25, i64 %.sroa.07.0.copyload, i64 %.sroa.06.0.copyload)
  br label %40

27:                                               ; preds = %18
  %28 = getelementptr inbounds nuw i8, ptr %1, i64 16
  %29 = getelementptr inbounds nuw i8, ptr %1, i64 18
  %30 = load i8, ptr %29, align 2
  %31 = and i8 %30, 7
  %32 = icmp eq i8 %31, 5
  %33 = icmp eq i8 %21, 5
  %or.cond = and i1 %33, %32
  %34 = getelementptr inbounds nuw i8, ptr %0, i64 8
  %35 = load ptr, ptr %34, align 8, !tbaa !34
  %.sroa.05.0.copyload = load i64, ptr %28, align 4
  %.sroa.04.0.copyload = load i64, ptr %3, align 4
  br i1 %or.cond, label %36, label %37

36:                                               ; preds = %27
  tail call void @_ZN4Luau7CodeGen3X6418AssemblyBuilderX647vmovupsENS1_10OperandX64ES3_(ptr noundef nonnull align 8 dereferenceable(252) %35, i64 %.sroa.05.0.copyload, i64 %.sroa.04.0.copyload)
  br label %40

37:                                               ; preds = %27
  br i1 %32, label %38, label %39

38:                                               ; preds = %37
  tail call void @_ZN4Luau7CodeGen3X6418AssemblyBuilderX646vmovsdENS1_10OperandX64ES3_(ptr noundef nonnull align 8 dereferenceable(252) %35, i64 %.sroa.05.0.copyload, i64 %.sroa.04.0.copyload)
  br label %40

39:                                               ; preds = %37
  tail call void @_ZN4Luau7CodeGen3X6418AssemblyBuilderX643movENS1_10OperandX64ES3_(ptr noundef nonnull align 8 dereferenceable(252) %35, i64 %.sroa.05.0.copyload, i64 %.sroa.04.0.copyload)
  br label %40

40:                                               ; preds = %12, %13, %14, %36, %39, %38, %23
  ret void
}